target datalayout = "e-m:e-p270:32:32-p271:32:32-p272:64:64-i64:64-i128:128-f80:128-n8:16:32:64-S128"
target triple = "x86_64-pc-linux-gnu"

%struct.ScanTable = type { ptr, [64 x i8], [64 x i8] }
%struct.MpegEncContext = type { ptr, i32, i32, i32, [12 x i32], i32, %struct.ScanTable, %struct.ScanTable, [64 x i8], [64 x i8], ptr, ptr, i32, i32, i32, i32, i32, i32, i32, i32, i32, i32, i32, i32, i32, i32, i32, i32, i32, i32, i32, i32, i64, i64, ptr, %struct.BufferPoolContext, i32, i32, %union.anon, i32, %struct.MPVWorkPicture, %struct.MPVWorkPicture, %struct.MPVWorkPicture, i32, [3 x i32], ptr, [3 x ptr], ptr, ptr, ptr, ptr, ptr, ptr, [3 x ptr], i32, ptr, ptr, ptr, ptr, %struct.ScratchpadContext, i32, i32, i32, i32, i32, i32, %struct.BlockDSPContext, %struct.H264ChromaContext, %struct.HpelDSPContext, %struct.IDCTDSPContext, %struct.QpelDSPContext, %struct.VideoDSPContext, %struct.H263DSPContext, ptr, [2 x [2 x ptr]], i32, i32, [2 x [4 x [2 x i32]]], [2 x [2 x i32]], [2 x [2 x [2 x i32]]], [2 x [64 x i16]], i32, i32, i32, i32, i32, [6 x i32], [6 x i32], [3 x ptr], ptr, [64 x i16], [64 x i16], [64 x i16], [64 x i16], i32, i32, %struct.GetBitContext, i32, i32, i32, i32, i32, i32, i32, i32, i32, i32, i32, i32, i32, i32, i32, i64, i64, i16, i16, i16, i16, i32, i32, i32, i32, i32, i32, i32, i32, i32, [3 x i32], i32, i32, i32, i32, i32, i32, %struct.GetBitContext, i32, [2 x [2 x i32]], i32, i32, i32, i32, i32, i32, i32, i32, i32, i32, i32, i32, i32, i32, [2 x i32], i32, i32, ptr, ptr, ptr, ptr, ptr, i32, i32, %struct.ERContext }
%struct.BufferPoolContext = type { ptr, ptr, ptr, ptr, ptr, i32, i32, i32 }
%union.anon = type { [32 x ptr] }
%struct.MPVWorkPicture = type { [3 x ptr], [3 x i64], ptr, ptr, [2 x ptr], ptr, ptr, [2 x ptr], i32 }
%struct.ScratchpadContext = type { ptr, ptr, %union.anon.0, i32 }
%union.anon.0 = type { ptr }
%struct.BlockDSPContext = type { ptr, ptr, [2 x ptr] }
%struct.H264ChromaContext = type { [4 x ptr], [4 x ptr] }
%struct.HpelDSPContext = type { [4 x [4 x ptr]], [4 x [4 x ptr]], [4 x [4 x ptr]], [4 x ptr] }
%struct.IDCTDSPContext = type { ptr, ptr, ptr, ptr, ptr, ptr, [64 x i8], i32, i32 }
%struct.QpelDSPContext = type { [2 x [16 x ptr]], [2 x [16 x ptr]], [2 x [16 x ptr]] }
%struct.VideoDSPContext = type { ptr, ptr }
%struct.H263DSPContext = type { ptr, ptr }
%struct.GetBitContext = type { ptr, ptr, i32, i32, i32 }
%struct.ERContext = type { ptr, ptr, i32, ptr, i32, i32, i32, i64, i64, i32, i32, ptr, ptr, [3 x ptr], ptr, ptr, [2 x [4 x [2 x i32]]], %struct.ERPicture, %struct.ERPicture, %struct.ERPicture, [2 x ptr], [2 x ptr], i16, i16, i32, i32, ptr, ptr }
%struct.ERPicture = type { ptr, ptr, ptr, [2 x ptr], [2 x ptr], ptr, i32 }

; Function Attrs: nounwind uwtable
define void @ff_clean_intra_table_entries(ptr noundef %0) #3 {
  %2 = alloca ptr, align 8
  %3 = alloca i32, align 4
  %4 = alloca i32, align 4
  store ptr %0, ptr %2, align 8, !tbaa !18
  call void @llvm.lifetime.start.p0(i64 4, ptr %3) #7
  %5 = load ptr, ptr %2, align 8, !tbaa !18
  %6 = getelementptr inbounds nuw %struct.MpegEncContext, ptr %5, i32 0, i32 28
  %7 = load i32, ptr %6, align 8, !tbaa !62
  store i32 %7, ptr %3, align 4, !tbaa !13
  call void @llvm.lifetime.start.p0(i64 4, ptr %4) #7
  %8 = load ptr, ptr %2, align 8, !tbaa !18
  %9 = getelementptr inbounds nuw %struct.MpegEncContext, ptr %8, i32 0, i32 86
  %10 = getelementptr inbounds [6 x i32], ptr %9, i64 0, i64 0
  %11 = load i32, ptr %10, align 4, !tbaa !13
  store i32 %11, ptr %4, align 4, !tbaa !13
  %12 = load ptr, ptr %2, align 8, !tbaa !18
  %13 = getelementptr inbounds nuw %struct.MpegEncContext, ptr %12, i32 0, i32 46
  %14 = getelementptr inbounds [3 x ptr], ptr %13, i64 0, i64 0
  %15 = load ptr, ptr %14, align 8, !tbaa !65
  %16 = load i32, ptr %4, align 4, !tbaa !13
  %17 = add nsw i32 %16, 1
  %18 = load i32, ptr %3, align 4, !tbaa !13
  %19 = add nsw i32 %17, %18
  %20 = sext i32 %19 to i64
  %21 = getelementptr inbounds i16, ptr %15, i64 %20
  store i16 1024, ptr %21, align 2, !tbaa !109
  %22 = load ptr, ptr %2, align 8, !tbaa !18
  %23 = getelementptr inbounds nuw %struct.MpegEncContext, ptr %22, i32 0, i32 46
  %24 = getelementptr inbounds [3 x ptr], ptr %23, i64 0, i64 0
  %25 = load ptr, ptr %24, align 8, !tbaa !65
  %26 = load i32, ptr %4, align 4, !tbaa !13
  %27 = load i32, ptr %3, align 4, !tbaa !13
  %28 = add nsw i32 %26, %27
  %29 = sext i32 %28 to i64
  %30 = getelementptr inbounds i16, ptr %25, i64 %29
  store i16 1024, ptr %30, align 2, !tbaa !109
  %31 = load ptr, ptr %2, align 8, !tbaa !18
  %32 = getelementptr inbounds nuw %struct.MpegEncContext, ptr %31, i32 0, i32 46
  %33 = getelementptr inbounds [3 x ptr], ptr %32, i64 0, i64 0
  %34 = load ptr, ptr %33, align 8, !tbaa !65
  %35 = load i32, ptr %4, align 4, !tbaa !13
  %36 = add nsw i32 %35, 1
  %37 = sext i32 %36 to i64
  %38 = getelementptr inbounds i16, ptr %34, i64 %37
  store i16 1024, ptr %38, align 2, !tbaa !109
  %39 = load ptr, ptr %2, align 8, !tbaa !18
  %40 = getelementptr inbounds nuw %struct.MpegEncContext, ptr %39, i32 0, i32 46
  %41 = getelementptr inbounds [3 x ptr], ptr %40, i64 0, i64 0
  %42 = load ptr, ptr %41, align 8, !tbaa !65
  %43 = load i32, ptr %4, align 4, !tbaa !13
  %44 = sext i32 %43 to i64
  %45 = getelementptr inbounds i16, ptr %42, i64 %44
  store i16 1024, ptr %45, align 2, !tbaa !109
  %46 = load ptr, ptr %2, align 8, !tbaa !18
  %47 = getelementptr inbounds nuw %struct.MpegEncContext, ptr %46, i32 0, i32 53
  %48 = getelementptr inbounds [3 x ptr], ptr %47, i64 0, i64 0
  %49 = load ptr, ptr %48, align 8, !tbaa !65
  %50 = load i32, ptr %4, align 4, !tbaa !13
  %51 = sext i32 %50 to i64
  %52 = getelementptr inbounds [16 x i16], ptr %49, i64 %51
  %53 = getelementptr inbounds [16 x i16], ptr %52, i64 0, i64 0
  call void @llvm.memset.p0.i64(ptr align 2 %53, i8 0, i64 64, i1 false)
  %54 = load ptr, ptr %2, align 8, !tbaa !18
  %55 = getelementptr inbounds nuw %struct.MpegEncContext, ptr %54, i32 0, i32 53
  %56 = getelementptr inbounds [3 x ptr], ptr %55, i64 0, i64 0
  %57 = load ptr, ptr %56, align 8, !tbaa !65
  %58 = load i32, ptr %4, align 4, !tbaa !13
  %59 = load i32, ptr %3, align 4, !tbaa !13
  %60 = add nsw i32 %58, %59
  %61 = sext i32 %60 to i64
  %62 = getelementptr inbounds [16 x i16], ptr %57, i64 %61
  %63 = getelementptr inbounds [16 x i16], ptr %62, i64 0, i64 0
  call void @llvm.memset.p0.i64(ptr align 2 %63, i8 0, i64 64, i1 false)
  %64 = load ptr, ptr %2, align 8, !tbaa !18
  %65 = getelementptr inbounds nuw %struct.MpegEncContext, ptr %64, i32 0, i32 27
  %66 = load i32, ptr %65, align 4, !tbaa !63
  store i32 %66, ptr %3, align 4, !tbaa !13
  %67 = load ptr, ptr %2, align 8, !tbaa !18
  %68 = getelementptr inbounds nuw %struct.MpegEncContext, ptr %67, i32 0, i32 82
  %69 = load i32, ptr %68, align 4, !tbaa !135
  %70 = load ptr, ptr %2, align 8, !tbaa !18
  %71 = getelementptr inbounds nuw %struct.MpegEncContext, ptr %70, i32 0, i32 83
  %72 = load i32, ptr %71, align 8, !tbaa !136
  %73 = load i32, ptr %3, align 4, !tbaa !13
  %74 = mul nsw i32 %72, %73
  %75 = add nsw i32 %69, %74
  store i32 %75, ptr %4, align 4, !tbaa !13
  %76 = load ptr, ptr %2, align 8, !tbaa !18
  %77 = getelementptr inbounds nuw %struct.MpegEncContext, ptr %76, i32 0, i32 46
  %78 = getelementptr inbounds [3 x ptr], ptr %77, i64 0, i64 2
  %79 = load ptr, ptr %78, align 8, !tbaa !65
  %80 = load i32, ptr %4, align 4, !tbaa !13
  %81 = sext i32 %80 to i64
  %82 = getelementptr inbounds i16, ptr %79, i64 %81
  store i16 1024, ptr %82, align 2, !tbaa !109
  %83 = load ptr, ptr %2, align 8, !tbaa !18
  %84 = getelementptr inbounds nuw %struct.MpegEncContext, ptr %83, i32 0, i32 46
  %85 = getelementptr inbounds [3 x ptr], ptr %84, i64 0, i64 1
  %86 = load ptr, ptr %85, align 8, !tbaa !65
  %87 = load i32, ptr %4, align 4, !tbaa !13
  %88 = sext i32 %87 to i64
  %89 = getelementptr inbounds i16, ptr %86, i64 %88
  store i16 1024, ptr %89, align 2, !tbaa !109
  %90 = load ptr, ptr %2, align 8, !tbaa !18
  %91 = getelementptr inbounds nuw %struct.MpegEncContext, ptr %90, i32 0, i32 53
  %92 = getelementptr inbounds [3 x ptr], ptr %91, i64 0, i64 1
  %93 = load ptr, ptr %92, align 8, !tbaa !65
  %94 = load i32, ptr %4, align 4, !tbaa !13
  %95 = sext i32 %94 to i64
  %96 = getelementptr inbounds [16 x i16], ptr %93, i64 %95
  %97 = getelementptr inbounds [16 x i16], ptr %96, i64 0, i64 0
  call void @llvm.memset.p0.i64(ptr align 2 %97, i8 0, i64 32, i1 false)
  %98 = load ptr, ptr %2, align 8, !tbaa !18
  %99 = getelementptr inbounds nuw %struct.MpegEncContext, ptr %98, i32 0, i32 53
  %100 = getelementptr inbounds [3 x ptr], ptr %99, i64 0, i64 2
  %101 = load ptr, ptr %100, align 8, !tbaa !65
  %102 = load i32, ptr %4, align 4, !tbaa !13
  %103 = sext i32 %102 to i64
  %104 = getelementptr inbounds [16 x i16], ptr %101, i64 %103
  %105 = getelementptr inbounds [16 x i16], ptr %104, i64 0, i64 0
  call void @llvm.memset.p0.i64(ptr align 2 %105, i8 0, i64 32, i1 false)
  %106 = load ptr, ptr %2, align 8, !tbaa !18
  %107 = getelementptr inbounds nuw %struct.MpegEncContext, ptr %106, i32 0, i32 56
  %108 = load ptr, ptr %107, align 8, !tbaa !112
  %109 = load i32, ptr %4, align 4, !tbaa !13
  %110 = sext i32 %109 to i64
  %111 = getelementptr inbounds i8, ptr %108, i64 %110
  store i8 0, ptr %111, align 1, !tbaa !15
  call void @llvm.lifetime.end.p0(i64 4, ptr %4) #7
  call void @llvm.lifetime.end.p0(i64 4, ptr %3) #7
  ret void
}