; Function Attrs: mustprogress nofree norecurse nosync nounwind willreturn memory(write, argmem: readwrite, inaccessiblemem: none) uwtable
define void @ff_clean_intra_table_entries(ptr noundef readonly captures(none) %0) local_unnamed_addr #8 {
  %2 = getelementptr inbounds nuw i8, ptr %0, i64 552
  %3 = load i32, ptr %2, align 8, !tbaa !55
  %4 = getelementptr inbounds nuw i8, ptr %0, i64 3364
  %5 = load i32, ptr %4, align 4, !tbaa !61
  %6 = getelementptr inbounds nuw i8, ptr %0, i64 1304
  %7 = load ptr, ptr %6, align 8, !tbaa !58
  %8 = add nsw i32 %5, 1
  %9 = add nsw i32 %8, %3
  %10 = sext i32 %9 to i64
  %11 = getelementptr inbounds i16, ptr %7, i64 %10
  store i16 1024, ptr %11, align 2, !tbaa !102
  %12 = add nsw i32 %5, %3
  %13 = sext i32 %12 to i64
  %14 = getelementptr inbounds i16, ptr %7, i64 %13
  store i16 1024, ptr %14, align 2, !tbaa !102
  %15 = sext i32 %8 to i64
  %16 = getelementptr inbounds i16, ptr %7, i64 %15
  store i16 1024, ptr %16, align 2, !tbaa !102
  %17 = sext i32 %5 to i64
  %18 = getelementptr inbounds i16, ptr %7, i64 %17
  store i16 1024, ptr %18, align 2, !tbaa !102
  %19 = getelementptr inbounds nuw i8, ptr %0, i64 1376
  %20 = load ptr, ptr %19, align 8, !tbaa !58
  %21 = getelementptr inbounds [16 x i16], ptr %20, i64 %17
  tail call void @llvm.memset.p0.i64(ptr noundef nonnull align 2 dereferenceable(64) %21, i8 0, i64 64, i1 false)
  %22 = load ptr, ptr %19, align 8, !tbaa !58
  %23 = getelementptr inbounds [16 x i16], ptr %22, i64 %13
  tail call void @llvm.memset.p0.i64(ptr noundef nonnull align 2 dereferenceable(64) %23, i8 0, i64 64, i1 false)
  %24 = getelementptr inbounds nuw i8, ptr %0, i64 548
  %25 = load i32, ptr %24, align 4, !tbaa !56
  %26 = getelementptr inbounds nuw i8, ptr %0, i64 3348
  %27 = load i32, ptr %26, align 4, !tbaa !125
  %28 = getelementptr inbounds nuw i8, ptr %0, i64 3352
  %29 = load i32, ptr %28, align 8, !tbaa !126
  %30 = mul nsw i32 %29, %25
  %31 = add nsw i32 %30, %27
  %32 = getelementptr inbounds nuw i8, ptr %0, i64 1320
  %33 = load ptr, ptr %32, align 8, !tbaa !58
  %34 = sext i32 %31 to i64
  %35 = getelementptr inbounds i16, ptr %33, i64 %34
  store i16 1024, ptr %35, align 2, !tbaa !102
  %36 = getelementptr inbounds nuw i8, ptr %0, i64 1312
  %37 = load ptr, ptr %36, align 8, !tbaa !58
  %38 = getelementptr inbounds i16, ptr %37, i64 %34
  store i16 1024, ptr %38, align 2, !tbaa !102
  %39 = getelementptr inbounds nuw i8, ptr %0, i64 1384
  %40 = load ptr, ptr %39, align 8, !tbaa !58
  %41 = getelementptr inbounds [16 x i16], ptr %40, i64 %34
  tail call void @llvm.memset.p0.i64(ptr noundef nonnull align 2 dereferenceable(32) %41, i8 0, i64 32, i1 false)
  %42 = getelementptr inbounds nuw i8, ptr %0, i64 1392
  %43 = load ptr, ptr %42, align 8, !tbaa !58
  %44 = getelementptr inbounds [16 x i16], ptr %43, i64 %34
  tail call void @llvm.memset.p0.i64(ptr noundef nonnull align 2 dereferenceable(32) %44, i8 0, i64 32, i1 false)
  %45 = getelementptr inbounds nuw i8, ptr %0, i64 1416
  %46 = load ptr, ptr %45, align 8, !tbaa !105
  %47 = getelementptr inbounds i8, ptr %46, i64 %34
  store i8 0, ptr %47, align 1, !tbaa !10
  ret void
}